target datalayout = "e-m:e-p270:32:32-p271:32:32-p272:64:64-i64:64-i128:128-f80:128-n8:16:32:64-S128"
target triple = "x86_64-pc-linux-gnu"

; Function Attrs: nounwind uwtable
define i32 @ff_network_sleep_interruptible(i64 noundef %0, ptr noundef %1) #0 {
  %3 = alloca i32, align 4
  %4 = alloca i64, align 8
  %5 = alloca ptr, align 8
  %6 = alloca i64, align 8
  %7 = alloca i64, align 8
  %8 = alloca i32, align 4
  store i64 %0, ptr %4, align 8, !tbaa !13
  store ptr %1, ptr %5, align 8, !tbaa !15
  call void @llvm.lifetime.start.p0(i64 8, ptr %6) #10
  %9 = call i64 @av_gettime_relative()
  store i64 %9, ptr %6, align 8, !tbaa !13
  br label %10

10:                                               ; preds = %37, %2
  br label %11

11:                                               ; preds = %10
  call void @llvm.lifetime.start.p0(i64 8, ptr %7) #10
  %12 = load ptr, ptr %5, align 8, !tbaa !15
  %13 = call i32 @ff_check_interrupt(ptr noundef %12)
  %14 = icmp ne i32 %13, 0
  br i1 %14, label %15, label %16

15:                                               ; preds = %11
  store i32 -1414092869, ptr %3, align 4
  store i32 1, ptr %8, align 4
  br label %35

16:                                               ; preds = %11
  %17 = load i64, ptr %4, align 8, !tbaa !13
  %18 = call i64 @av_gettime_relative()
  %19 = load i64, ptr %6, align 8, !tbaa !13
  %20 = sub nsw i64 %18, %19
  %21 = sub nsw i64 %17, %20
  store i64 %21, ptr %7, align 8, !tbaa !13
  %22 = load i64, ptr %7, align 8, !tbaa !13
  %23 = icmp sle i64 %22, 0
  br i1 %23, label %24, label %25

24:                                               ; preds = %16
  store i32 -110, ptr %3, align 4
  store i32 1, ptr %8, align 4
  br label %35

25:                                               ; preds = %16
  %26 = load i64, ptr %7, align 8, !tbaa !13
  %27 = icmp sgt i64 %26, 100000
  br i1 %27, label %28, label %29

28:                                               ; preds = %25
  br label %31

29:                                               ; preds = %25
  %30 = load i64, ptr %7, align 8, !tbaa !13
  br label %31

31:                                               ; preds = %29, %28
  %32 = phi i64 [ 100000, %28 ], [ %30, %29 ]
  %33 = trunc i64 %32 to i32
  %34 = call i32 @av_usleep(i32 noundef %33)
  store i32 0, ptr %8, align 4
  br label %35

35:                                               ; preds = %31, %24, %15
  call void @llvm.lifetime.end.p0(i64 8, ptr %7) #10
  %36 = load i32, ptr %8, align 4
  switch i32 %36, label %38 [
    i32 0, label %37
  ]

37:                                               ; preds = %35
  br label %10

38:                                               ; preds = %35
  call void @llvm.lifetime.end.p0(i64 8, ptr %6) #10
  %39 = load i32, ptr %3, align 4
  ret i32 %39
}