; Function Attrs: nounwind uwtable
define range(i32 -1414092869, -109) i32 @ff_network_sleep_interruptible(i64 noundef %0, ptr noundef %1) local_unnamed_addr #1 {
  %3 = tail call i64 @av_gettime_relative() #12
  %4 = tail call i32 @ff_check_interrupt(ptr noundef %1) #12
  %.not12 = icmp eq i32 %4, 0
  br i1 %.not12, label %.lr.ph, label %._crit_edge

.lr.ph:                                           ; preds = %2, %8
  %5 = tail call i64 @av_gettime_relative() #12
  %.neg = sub i64 %3, %5
  %6 = add i64 %.neg, %0
  %7 = icmp slt i64 %6, 1
  br i1 %7, label %._crit_edge, label %8

8:                                                ; preds = %.lr.ph
  %9 = tail call i64 @llvm.umin.i64(i64 %6, i64 100000)
  %10 = trunc nuw nsw i64 %9 to i32
  %11 = tail call i32 @av_usleep(i32 noundef %10) #12
  %12 = tail call i32 @ff_check_interrupt(ptr noundef %1) #12
  %.not = icmp eq i32 %12, 0
  br i1 %.not, label %.lr.ph, label %._crit_edge

._crit_edge:                                      ; preds = %.lr.ph, %8, %2
  %.1.ph = phi i32 [ -1414092869, %2 ], [ -1414092869, %8 ], [ -110, %.lr.ph ]
  ret i32 %.1.ph
}